target datalayout = "e-m:e-p270:32:32-p271:32:32-p272:64:64-i64:64-i128:128-f80:128-n8:16:32:64-S128"
target triple = "x86_64-unknown-linux-gnu"

@_ZN8facebook5velox4utilL9kLeapDaysE = internal constant [13 x i32] [i32 0, i32 31, i32 29, i32 31, i32 30, i32 31, i32 30, i32 31, i32 31, i32 30, i32 31, i32 30, i32 31], align 16
@_ZN8facebook5velox4utilL11kNormalDaysE = internal constant [13 x i32] [i32 0, i32 31, i32 28, i32 31, i32 30, i32 31, i32 30, i32 31, i32 31, i32 30, i32 31, i32 30, i32 31], align 16

; Function Attrs: mustprogress nounwind uwtable
define noundef zeroext i1 @_ZN8facebook5velox4util10isLeapYearEi(i32 noundef %year) #0 {
entry:
  %year.addr = alloca i32, align 4
  store i32 %year, ptr %year.addr, align 4
  %0 = load i32, ptr %year.addr, align 4
  %rem = srem i32 %0, 4
  %cmp = icmp eq i32 %rem, 0
  br i1 %cmp, label %land.rhs, label %land.end

land.rhs:                                         ; preds = %entry
  %1 = load i32, ptr %year.addr, align 4
  %rem1 = srem i32 %1, 100
  %cmp2 = icmp ne i32 %rem1, 0
  br i1 %cmp2, label %lor.end, label %lor.rhs

lor.rhs:                                          ; preds = %land.rhs
  %2 = load i32, ptr %year.addr, align 4
  %rem3 = srem i32 %2, 400
  %cmp4 = icmp eq i32 %rem3, 0
  br label %lor.end

lor.end:                                          ; preds = %lor.rhs, %land.rhs
  %3 = phi i1 [ true, %land.rhs ], [ %cmp4, %lor.rhs ]
  br label %land.end

land.end:                                         ; preds = %lor.end, %entry
  %4 = phi i1 [ false, %entry ], [ %3, %lor.end ]
  ret i1 %4
}

; Function Attrs: mustprogress nounwind uwtable
define noundef zeroext i1 @_ZN8facebook5velox4util11isValidDateEiii(i32 noundef %year, i32 noundef %month, i32 noundef %day) #0 {
entry:
  %retval = alloca i1, align 1
  %year.addr = alloca i32, align 4
  %month.addr = alloca i32, align 4
  %day.addr = alloca i32, align 4
  store i32 %year, ptr %year.addr, align 4
  store i32 %month, ptr %month.addr, align 4
  store i32 %day, ptr %day.addr, align 4
  %0 = load i32, ptr %month.addr, align 4
  %cmp = icmp slt i32 %0, 1
  br i1 %cmp, label %if.then, label %lor.lhs.false

lor.lhs.false:                                    ; preds = %entry
  %1 = load i32, ptr %month.addr, align 4
  %cmp1 = icmp sgt i32 %1, 12
  br i1 %cmp1, label %if.then, label %if.end

if.then:                                          ; preds = %lor.lhs.false, %entry
  store i1 false, ptr %retval, align 1
  br label %return

if.end:                                           ; preds = %lor.lhs.false
  %2 = load i32, ptr %year.addr, align 4
  %cmp2 = icmp slt i32 %2, -292275055
  br i1 %cmp2, label %if.then5, label %lor.lhs.false3

lor.lhs.false3:                                   ; preds = %if.end
  %3 = load i32, ptr %year.addr, align 4
  %cmp4 = icmp sgt i32 %3, 292278994
  br i1 %cmp4, label %if.then5, label %if.end6

if.then5:                                         ; preds = %lor.lhs.false3, %if.end
  store i1 false, ptr %retval, align 1
  br label %return

if.end6:                                          ; preds = %lor.lhs.false3
  %4 = load i32, ptr %day.addr, align 4
  %cmp7 = icmp slt i32 %4, 1
  br i1 %cmp7, label %if.then8, label %if.end9

if.then8:                                         ; preds = %if.end6
  store i1 false, ptr %retval, align 1
  br label %return

if.end9:                                          ; preds = %if.end6
  %5 = load i32, ptr %year.addr, align 4
  %call = call noundef zeroext i1 @_ZN8facebook5velox4util10isLeapYearEi(i32 noundef %5)
  br i1 %call, label %cond.true, label %cond.false

cond.true:                                        ; preds = %if.end9
  %6 = load i32, ptr %day.addr, align 4
  %7 = load i32, ptr %month.addr, align 4
  %idxprom = sext i32 %7 to i64
  %arrayidx = getelementptr inbounds [13 x i32], ptr @_ZN8facebook5velox4utilL9kLeapDaysE, i64 0, i64 %idxprom
  %8 = load i32, ptr %arrayidx, align 4
  %cmp10 = icmp sle i32 %6, %8
  br label %cond.end

cond.false:                                       ; preds = %if.end9
  %9 = load i32, ptr %day.addr, align 4
  %10 = load i32, ptr %month.addr, align 4
  %idxprom11 = sext i32 %10 to i64
  %arrayidx12 = getelementptr inbounds [13 x i32], ptr @_ZN8facebook5velox4utilL11kNormalDaysE, i64 0, i64 %idxprom11
  %11 = load i32, ptr %arrayidx12, align 4
  %cmp13 = icmp sle i32 %9, %11
  br label %cond.end

cond.end:                                         ; preds = %cond.false, %cond.true
  %cond = phi i1 [ %cmp10, %cond.true ], [ %cmp13, %cond.false ]
  store i1 %cond, ptr %retval, align 1
  br label %return

return:                                           ; preds = %cond.end, %if.then8, %if.then5, %if.then
  %12 = load i1, ptr %retval, align 1
  ret i1 %12
}