; Function Attrs: mustprogress nofree norecurse nosync nounwind willreturn memory(none) uwtable
define noundef zeroext i1 @_ZN8facebook5velox4util11isValidDateEiii(i32 noundef %year, i32 noundef %month, i32 noundef %day) local_unnamed_addr #0 {
entry:
  %0 = add i32 %month, -13
  %or.cond = icmp ult i32 %0, -12
  %1 = add i32 %year, -292278995
  %or.cond1 = icmp ult i32 %1, -584554050
  %or.cond9 = or i1 %or.cond1, %or.cond
  %cmp7 = icmp slt i32 %day, 1
  %or.cond10 = or i1 %cmp7, %or.cond9
  br i1 %or.cond10, label %return, label %if.end9

if.end9:                                          ; preds = %entry
  %2 = and i32 %year, 3
  %cmp.i = icmp eq i32 %2, 0
  br i1 %cmp.i, label %land.rhs.i, label %_ZN8facebook5velox4util10isLeapYearEi.exit.thread16

_ZN8facebook5velox4util10isLeapYearEi.exit.thread16: ; preds = %if.end9
  %idxprom17 = zext nneg i32 %month to i64
  %arrayidx1219 = getelementptr inbounds nuw [13 x i32], ptr @_ZN8facebook5velox4utilL11kNormalDaysE, i64 0, i64 %idxprom17
  br label %3

land.rhs.i:                                       ; preds = %if.end9
  %rem1.i = srem i32 %year, 100
  %cmp2.not.i = icmp eq i32 %rem1.i, 0
  br i1 %cmp2.not.i, label %_ZN8facebook5velox4util10isLeapYearEi.exit, label %_ZN8facebook5velox4util10isLeapYearEi.exit.thread

_ZN8facebook5velox4util10isLeapYearEi.exit.thread: ; preds = %land.rhs.i
  %idxprom11 = zext nneg i32 %month to i64
  %arrayidx13 = getelementptr inbounds nuw [13 x i32], ptr @_ZN8facebook5velox4utilL9kLeapDaysE, i64 0, i64 %idxprom11
  br label %3

_ZN8facebook5velox4util10isLeapYearEi.exit:       ; preds = %land.rhs.i
  %rem3.i = srem i32 %year, 400
  %cmp4.i = icmp eq i32 %rem3.i, 0
  %idxprom = zext nneg i32 %month to i64
  %arrayidx = getelementptr inbounds nuw [13 x i32], ptr @_ZN8facebook5velox4utilL9kLeapDaysE, i64 0, i64 %idxprom
  %arrayidx12 = getelementptr inbounds nuw [13 x i32], ptr @_ZN8facebook5velox4utilL11kNormalDaysE, i64 0, i64 %idxprom
  %spec.select = select i1 %cmp4.i, ptr %arrayidx, ptr %arrayidx12
  br label %3

3:                                                ; preds = %_ZN8facebook5velox4util10isLeapYearEi.exit, %_ZN8facebook5velox4util10isLeapYearEi.exit.thread, %_ZN8facebook5velox4util10isLeapYearEi.exit.thread16
  %4 = phi ptr [ %arrayidx1219, %_ZN8facebook5velox4util10isLeapYearEi.exit.thread16 ], [ %arrayidx13, %_ZN8facebook5velox4util10isLeapYearEi.exit.thread ], [ %spec.select, %_ZN8facebook5velox4util10isLeapYearEi.exit ]
  %.pn = load i32, ptr %4, align 4
  %cond = icmp sle i32 %day, %.pn
  br label %return

return:                                           ; preds = %entry, %3
  %retval.0 = phi i1 [ %cond, %3 ], [ false, %entry ]
  ret i1 %retval.0
}